; Function Attrs: null_pointer_is_valid sspstrong uwtable
define internal i32 @dissect_nbap_BindingID(ptr noundef %0, i32 noundef %1, ptr noundef %2, ptr noundef %3, i32 noundef %4) #0 {
  %6 = alloca ptr, align 8
  call void @llvm.lifetime.start.p0(i64 8, ptr nonnull %6) #9
  store ptr null, ptr %6, align 8
  %7 = call i32 @dissect_per_octet_string(ptr noundef %0, i32 noundef %1, ptr noundef %2, ptr noundef %3, i32 noundef %4, i32 noundef 1, i32 noundef 4, i1 noundef zeroext true, ptr noundef nonnull %6)
  %8 = load ptr, ptr %6, align 8
  %.not = icmp eq ptr %8, null
  br i1 %.not, label %39, label %9

9:                                                ; preds = %5
  %10 = call i32 @tvb_reported_length(ptr noundef nonnull %8)
  %11 = icmp ugt i32 %10, 1
  br i1 %11, label %12, label %39

12:                                               ; preds = %9
  %13 = load ptr, ptr %6, align 8
  %14 = call zeroext i16 @tvb_get_ntohs(ptr noundef %13, i32 noundef 0)
  %15 = getelementptr inbounds nuw i8, ptr %2, i64 16
  %16 = load ptr, ptr %15, align 8
  %17 = getelementptr inbounds nuw i8, ptr %16, i64 408
  %18 = load ptr, ptr %17, align 8
  %19 = load i32, ptr @proto_nbap, align 4
  %20 = call ptr @p_get_proto_data(ptr noundef %18, ptr noundef %16, i32 noundef %19, i32 noundef 0)
  %21 = icmp eq ptr %20, null
  br i1 %21, label %22, label %nbap_get_private_data.exit

22:                                               ; preds = %12
  %23 = load ptr, ptr %17, align 8
  %24 = call noalias dereferenceable_or_null(268056) ptr @wmem_alloc0(ptr noundef %23, i64 noundef 268056) #10
  %25 = load ptr, ptr %17, align 8
  %26 = load i32, ptr @proto_nbap, align 4
  call void @p_add_proto_data(ptr noundef %25, ptr noundef %16, i32 noundef %26, i32 noundef 0, ptr noundef %24)
  %27 = getelementptr inbounds nuw i8, ptr %24, i64 68
  store i32 3, ptr %27, align 4
  %28 = getelementptr inbounds nuw i8, ptr %24, i64 108
  store i8 0, ptr %28, align 4
  %29 = getelementptr inbounds nuw i8, ptr %24, i64 12
  store i32 65535, ptr %29, align 4
  %30 = getelementptr inbounds nuw i8, ptr %24, i64 40
  store i32 65535, ptr %30, align 8
  %31 = getelementptr inbounds nuw i8, ptr %24, i64 109
  store i8 2, ptr %31, align 1
  %32 = getelementptr i8, ptr %24, i64 267508
  br label %33

33:                                               ; preds = %33, %22
  %indvars.iv.i = phi i64 [ 0, %22 ], [ %indvars.iv.next.i, %33 ]
  %.idx.i = mul nuw nsw i64 %indvars.iv.i, 40
  %34 = getelementptr i8, ptr %32, i64 %.idx.i
  store i8 1, ptr %34, align 4
  %indvars.iv.next.i = add nuw nsw i64 %indvars.iv.i, 1
  %exitcond.not.i = icmp eq i64 %indvars.iv.next.i, 8
  br i1 %exitcond.not.i, label %nbap_get_private_data.exit, label %33, !llvm.loop !9

nbap_get_private_data.exit:                       ; preds = %33, %12
  %.0.i = phi ptr [ %20, %12 ], [ %24, %33 ]
  %35 = getelementptr inbounds nuw i8, ptr %.0.i, i64 4
  store i16 %14, ptr %35, align 4
  %36 = getelementptr inbounds nuw i8, ptr %2, i64 24
  %37 = load ptr, ptr %36, align 8
  %38 = zext i16 %14 to i32
  call void (ptr, ptr, ...) @proto_item_append_text(ptr noundef %37, ptr noundef nonnull @.str.9274, i32 noundef %38)
  br label %39

39:                                               ; preds = %9, %nbap_get_private_data.exit, %5
  call void @llvm.lifetime.end.p0(i64 8, ptr nonnull %6) #9
  ret i32 %7
}